; Function Attrs: mustprogress nounwind uwtable
define dso_local void @_ZN4llvm10TimerGroup8printAllERNS_11raw_ostreamE(ptr noundef nonnull align 8 dereferenceable(48) %0) local_unnamed_addr #0 align 2 {
  %2 = load atomic i64, ptr @_ZL9TimerLock acquire, align 8
  %.not.i = icmp eq i64 %2, 0
  br i1 %.not.i, label %3, label %_ZN4llvm13ManagedStaticINS_3sys10SmartMutexILb1EEENS_14object_creatorIS3_EENS_14object_deleterIS3_EEEdeEv.exit

3:                                                ; preds = %1
  tail call void @_ZNK4llvm17ManagedStaticBase21RegisterManagedStaticEPFPvvEPFvS1_E(ptr noundef nonnull align 8 dereferenceable(24) @_ZL9TimerLock, ptr noundef nonnull @_ZN4llvm14object_creatorINS_3sys10SmartMutexILb1EEEE4callEv, ptr noundef nonnull @_ZN4llvm14object_deleterINS_3sys10SmartMutexILb1EEEE4callEPv) #19
  br label %_ZN4llvm13ManagedStaticINS_3sys10SmartMutexILb1EEENS_14object_creatorIS3_EENS_14object_deleterIS3_EEEdeEv.exit

_ZN4llvm13ManagedStaticINS_3sys10SmartMutexILb1EEENS_14object_creatorIS3_EENS_14object_deleterIS3_EEEdeEv.exit: ; preds = %1, %3
  %4 = load atomic i64, ptr @_ZL9TimerLock monotonic, align 8
  %.0.i2.i = inttoptr i64 %4 to ptr
  %5 = tail call noundef i32 @pthread_mutex_lock(ptr noundef nonnull %.0.i2.i) #19
  %.not.i.i.i = icmp eq i32 %5, 0
  br i1 %.not.i.i.i, label %_ZNSt10lock_guardIN4llvm3sys10SmartMutexILb1EEEEC2ERS3_.exit.preheader, label %6

_ZNSt10lock_guardIN4llvm3sys10SmartMutexILb1EEEEC2ERS3_.exit.preheader: ; preds = %_ZN4llvm13ManagedStaticINS_3sys10SmartMutexILb1EEENS_14object_creatorIS3_EENS_14object_deleterIS3_EEEdeEv.exit
  %.04 = load ptr, ptr @_ZL14TimerGroupList, align 8
  %.not5 = icmp eq ptr %.04, null
  br i1 %.not5, label %_ZNSt10lock_guardIN4llvm3sys10SmartMutexILb1EEEEC2ERS3_.exit._crit_edge, label %.lr.ph

6:                                                ; preds = %_ZN4llvm13ManagedStaticINS_3sys10SmartMutexILb1EEENS_14object_creatorIS3_EENS_14object_deleterIS3_EEEdeEv.exit
  tail call void @_ZSt20__throw_system_errori(i32 noundef %5) #22
  unreachable

.lr.ph:                                           ; preds = %_ZNSt10lock_guardIN4llvm3sys10SmartMutexILb1EEEEC2ERS3_.exit.preheader, %_ZN4llvm10TimerGroup5printERNS_11raw_ostreamEb.exit
  %.06 = phi ptr [ %.0, %_ZN4llvm10TimerGroup5printERNS_11raw_ostreamEb.exit ], [ %.04, %_ZNSt10lock_guardIN4llvm3sys10SmartMutexILb1EEEEC2ERS3_.exit.preheader ]
  %7 = load atomic i64, ptr @_ZL9TimerLock acquire, align 8
  %.not.i.i = icmp eq i64 %7, 0
  br i1 %.not.i.i, label %8, label %_ZN4llvm13ManagedStaticINS_3sys10SmartMutexILb1EEENS_14object_creatorIS3_EENS_14object_deleterIS3_EEEdeEv.exit.i

8:                                                ; preds = %.lr.ph
  tail call void @_ZNK4llvm17ManagedStaticBase21RegisterManagedStaticEPFPvvEPFvS1_E(ptr noundef nonnull align 8 dereferenceable(24) @_ZL9TimerLock, ptr noundef nonnull @_ZN4llvm14object_creatorINS_3sys10SmartMutexILb1EEEE4callEv, ptr noundef nonnull @_ZN4llvm14object_deleterINS_3sys10SmartMutexILb1EEEE4callEPv) #19
  br label %_ZN4llvm13ManagedStaticINS_3sys10SmartMutexILb1EEENS_14object_creatorIS3_EENS_14object_deleterIS3_EEEdeEv.exit.i

_ZN4llvm13ManagedStaticINS_3sys10SmartMutexILb1EEENS_14object_creatorIS3_EENS_14object_deleterIS3_EEEdeEv.exit.i: ; preds = %8, %.lr.ph
  %9 = load atomic i64, ptr @_ZL9TimerLock monotonic, align 8
  %.0.i2.i.i = inttoptr i64 %9 to ptr
  %10 = tail call noundef i32 @pthread_mutex_lock(ptr noundef nonnull %.0.i2.i.i) #19
  %.not.i.i.i.i = icmp eq i32 %10, 0
  br i1 %.not.i.i.i.i, label %_ZNSt10lock_guardIN4llvm3sys10SmartMutexILb1EEEEC2ERS3_.exit.i, label %11

11:                                               ; preds = %_ZN4llvm13ManagedStaticINS_3sys10SmartMutexILb1EEENS_14object_creatorIS3_EENS_14object_deleterIS3_EEEdeEv.exit.i
  tail call void @_ZSt20__throw_system_errori(i32 noundef %10) #22
  unreachable

_ZNSt10lock_guardIN4llvm3sys10SmartMutexILb1EEEEC2ERS3_.exit.i: ; preds = %_ZN4llvm13ManagedStaticINS_3sys10SmartMutexILb1EEENS_14object_creatorIS3_EENS_14object_deleterIS3_EEEdeEv.exit.i
  tail call void @_ZN4llvm10TimerGroup18prepareToPrintListEb(ptr noundef nonnull align 8 dereferenceable(112) %.06, i1 noundef zeroext false)
  %12 = tail call noundef i32 @pthread_mutex_unlock(ptr noundef nonnull %.0.i2.i.i) #19
  %13 = getelementptr inbounds nuw i8, ptr %.06, i64 72
  %14 = load ptr, ptr %13, align 8
  %15 = getelementptr inbounds i8, ptr %.06, i64 80
  %16 = load ptr, ptr %15, align 8
  %17 = icmp eq ptr %14, %16
  br i1 %17, label %_ZN4llvm10TimerGroup5printERNS_11raw_ostreamEb.exit, label %18

18:                                               ; preds = %_ZNSt10lock_guardIN4llvm3sys10SmartMutexILb1EEEEC2ERS3_.exit.i
  tail call void @_ZN4llvm10TimerGroup17PrintQueuedTimersERNS_11raw_ostreamE(ptr noundef nonnull align 8 dereferenceable(112) %.06, ptr noundef nonnull align 8 dereferenceable(48) %0)
  br label %_ZN4llvm10TimerGroup5printERNS_11raw_ostreamEb.exit

_ZN4llvm10TimerGroup5printERNS_11raw_ostreamEb.exit: ; preds = %_ZNSt10lock_guardIN4llvm3sys10SmartMutexILb1EEEEC2ERS3_.exit.i, %18
  %19 = getelementptr inbounds nuw i8, ptr %.06, i64 104
  %.0 = load ptr, ptr %19, align 8
  %.not = icmp eq ptr %.0, null
  br i1 %.not, label %_ZNSt10lock_guardIN4llvm3sys10SmartMutexILb1EEEEC2ERS3_.exit._crit_edge, label %.lr.ph, !llvm.loop !71

_ZNSt10lock_guardIN4llvm3sys10SmartMutexILb1EEEEC2ERS3_.exit._crit_edge: ; preds = %_ZN4llvm10TimerGroup5printERNS_11raw_ostreamEb.exit, %_ZNSt10lock_guardIN4llvm3sys10SmartMutexILb1EEEEC2ERS3_.exit.preheader
  %20 = tail call noundef i32 @pthread_mutex_unlock(ptr noundef nonnull %.0.i2.i) #19
  ret void
}